; ModuleID = '57/2706.c'
source_filename = "57/2706.c"
target datalayout = "e-m:e-p270:32:32-p271:32:32-p272:64:64-i64:64-f80:128-n8:16:32:64-S128"
target triple = "x86_64-pc-linux-gnu"

@.str = private unnamed_addr constant [4 x i8] c"%d\0A\00", align 1
@n = common dso_local global i32 0, align 4
@s = common dso_local global [100 x i8] zeroinitializer, align 16
@l = common dso_local global i32 0, align 4

; Function Attrs: noinline nounwind uwtable
define dso_local i32 @main() #0 {
  %1 = alloca i32, align 4
  %2 = alloca i32, align 4
  store i32 0, i32* %1, align 4
  %3 = call i32 (i8*, ...) @__isoc99_scanf(i8* getelementptr inbounds ([4 x i8], [4 x i8]* @.str, i64 0, i64 0), i32* @n)
  store i32 0, i32* %2, align 4
  br label %4

4:                                                ; preds = %97, %0
  %5 = load i32, i32* %2, align 4
  %6 = load i32, i32* @n, align 4
  %7 = icmp slt i32 %5, %6
  br i1 %7, label %8, label %100

8:                                                ; preds = %4
  %9 = call i32 (i8*, ...) bitcast (i32 (...)* @gets to i32 (i8*, ...)*)(i8* getelementptr inbounds ([100 x i8], [100 x i8]* @s, i64 0, i64 0))
  %10 = sext i32 %9 to i64
  %11 = inttoptr i64 %10 to i8*
  %12 = call i64 @strlen(i8* %11) #3
  %13 = trunc i64 %12 to i32
  store i32 %13, i32* @l, align 4
  %14 = load i32, i32* @l, align 4
  %15 = icmp sge i32 %14, 3
  br i1 %15, label %16, label %45

16:                                               ; preds = %8
  %17 = load i32, i32* @l, align 4
  %18 = sub nsw i32 %17, 3
  %19 = sext i32 %18 to i64
  %20 = getelementptr inbounds [100 x i8], [100 x i8]* @s, i64 0, i64 %19
  %21 = load i8, i8* %20, align 1
  %22 = sext i8 %21 to i32
  %23 = icmp eq i32 %22, 105
  br i1 %23, label %24, label %45

24:                                               ; preds = %16
  %25 = load i32, i32* @l, align 4
  %26 = sub nsw i32 %25, 2
  %27 = sext i32 %26 to i64
  %28 = getelementptr inbounds [100 x i8], [100 x i8]* @s, i64 0, i64 %27
  %29 = load i8, i8* %28, align 1
  %30 = sext i8 %29 to i32
  %31 = icmp eq i32 %30, 110
  br i1 %31, label %32, label %45

32:                                               ; preds = %24
  %33 = load i32, i32* @l, align 4
  %34 = sub nsw i32 %33, 1
  %35 = sext i32 %34 to i64
  %36 = getelementptr inbounds [100 x i8], [100 x i8]* @s, i64 0, i64 %35
  %37 = load i8, i8* %36, align 1
  %38 = sext i8 %37 to i32
  %39 = icmp eq i32 %38, 103
  br i1 %39, label %40, label %45

40:                                               ; preds = %32
  %41 = load i32, i32* @l, align 4
  %42 = sub nsw i32 %41, 3
  %43 = sext i32 %42 to i64
  %44 = getelementptr inbounds [100 x i8], [100 x i8]* @s, i64 0, i64 %43
  store i8 0, i8* %44, align 1
  br label %95

45:                                               ; preds = %32, %24, %16, %8
  %46 = load i32, i32* @l, align 4
  %47 = icmp sge i32 %46, 2
  br i1 %47, label %48, label %69

48:                                               ; preds = %45
  %49 = load i32, i32* @l, align 4
  %50 = sub nsw i32 %49, 2
  %51 = sext i32 %50 to i64
  %52 = getelementptr inbounds [100 x i8], [100 x i8]* @s, i64 0, i64 %51
  %53 = load i8, i8* %52, align 1
  %54 = sext i8 %53 to i32
  %55 = icmp eq i32 %54, 101
  br i1 %55, label %56, label %69

56:                                               ; preds = %48
  %57 = load i32, i32* @l, align 4
  %58 = sub nsw i32 %57, 1
  %59 = sext i32 %58 to i64
  %60 = getelementptr inbounds [100 x i8], [100 x i8]* @s, i64 0, i64 %59
  %61 = load i8, i8* %60, align 1
  %62 = sext i8 %61 to i32
  %63 = icmp eq i32 %62, 114
  br i1 %63, label %64, label %69

64:                                               ; preds = %56
  %65 = load i32, i32* @l, align 4
  %66 = sub nsw i32 %65, 2
  %67 = sext i32 %66 to i64
  %68 = getelementptr inbounds [100 x i8], [100 x i8]* @s, i64 0, i64 %67
  store i8 0, i8* %68, align 1
  br label %94

69:                                               ; preds = %56, %48, %45
  %70 = load i32, i32* @l, align 4
  %71 = icmp sge i32 %70, 2
  br i1 %71, label %72, label %93

72:                                               ; preds = %69
  %73 = load i32, i32* @l, align 4
  %74 = sub nsw i32 %73, 2
  %75 = sext i32 %74 to i64
  %76 = getelementptr inbounds [100 x i8], [100 x i8]* @s, i64 0, i64 %75
  %77 = load i8, i8* %76, align 1
  %78 = sext i8 %77 to i32
  %79 = icmp eq i32 %78, 108
  br i1 %79, label %80, label %93

80:                                               ; preds = %72
  %81 = load i32, i32* @l, align 4
  %82 = sub nsw i32 %81, 1
  %83 = sext i32 %82 to i64
  %84 = getelementptr inbounds [100 x i8], [100 x i8]* @s, i64 0, i64 %83
  %85 = load i8, i8* %84, align 1
  %86 = sext i8 %85 to i32
  %87 = icmp eq i32 %86, 121
  br i1 %87, label %88, label %93

88:                                               ; preds = %80
  %89 = load i32, i32* @l, align 4
  %90 = sub nsw i32 %89, 2
  %91 = sext i32 %90 to i64
  %92 = getelementptr inbounds [100 x i8], [100 x i8]* @s, i64 0, i64 %91
  store i8 0, i8* %92, align 1
  br label %93

93:                                               ; preds = %88, %80, %72, %69
  br label %94

94:                                               ; preds = %93, %64
  br label %95

95:                                               ; preds = %94, %40
  %96 = call i32 @puts(i8* getelementptr inbounds ([100 x i8], [100 x i8]* @s, i64 0, i64 0))
  br label %97

97:                                               ; preds = %95
  %98 = load i32, i32* %2, align 4
  %99 = add nsw i32 %98, 1
  store i32 %99, i32* %2, align 4
  br label %4

100:                                              ; preds = %4
  ret i32 0
}

declare dso_local i32 @__isoc99_scanf(i8*, ...) #1

; Function Attrs: nounwind readonly
declare dso_local i64 @strlen(i8*) #2

declare dso_local i32 @gets(...) #1

declare dso_local i32 @puts(i8*) #1


!llvm.module.flags = !{!0}
!llvm.ident = !{!1}

!0 = !{i32 1, !"wchar_size", i32 4}
!1 = !{!"clang version 10.0.0-4ubuntu1 "}
